target datalayout = "e-m:e-p270:32:32-p271:32:32-p272:64:64-i64:64-i128:128-f80:128-n8:16:32:64-S128"
target triple = "x86_64-pc-linux-gnu"

%"class.VrmlTranslator::Scanner" = type { ptr, ptr, ptr, ptr, i8, i32, i32, i32, i32, %"class.VrmlTranslator::StartStates", %"class.VrmlTranslator::KeywordMap", ptr, ptr, i32, i32, ptr, ptr, i32, i32, i32, i32, i32, ptr }
%"class.VrmlTranslator::StartStates" = type { ptr, ptr }
%"class.VrmlTranslator::KeywordMap" = type { ptr, ptr }
%"class.VrmlTranslator::KeywordMap::Elem" = type { ptr, ptr, i32, ptr }
%"class.VrmlTranslator::StartStates::Elem" = type { i32, i32, ptr }

@_ZTVN14VrmlTranslator11StartStatesE = linkonce_odr unnamed_addr constant { [4 x ptr] } { [4 x ptr] [ptr null, ptr @_ZTIN14VrmlTranslator11StartStatesE, ptr @_ZN14VrmlTranslator11StartStatesD2Ev, ptr @_ZN14VrmlTranslator11StartStatesD0Ev] }, comdat, align 8
@_ZTVN14VrmlTranslator10KeywordMapE = linkonce_odr unnamed_addr constant { [4 x ptr] } { [4 x ptr] [ptr null, ptr @_ZTIN14VrmlTranslator10KeywordMapE, ptr @_ZN14VrmlTranslator10KeywordMapD2Ev, ptr @_ZN14VrmlTranslator10KeywordMapD0Ev] }, comdat, align 8

; Function Attrs: mustprogress nounwind uwtable
define linkonce_odr void @_ZN14VrmlTranslator11StartStatesD2Ev(ptr noundef nonnull align 8 dereferenceable(16) %0) unnamed_addr #0 comdat align 2 {
  %2 = alloca ptr, align 8
  %3 = alloca i32, align 4
  %4 = alloca ptr, align 8
  %5 = alloca ptr, align 8
  store ptr %0, ptr %2, align 8
  %6 = load ptr, ptr %2, align 8
  store ptr getelementptr inbounds ({ [4 x ptr] }, ptr @_ZTVN14VrmlTranslator11StartStatesE, i32 0, i32 0, i32 2), ptr %6, align 8
  store i32 0, ptr %3, align 4
  br label %7

7:                                                ; preds = %30, %1
  %8 = load i32, ptr %3, align 4
  %9 = icmp slt i32 %8, 128
  br i1 %9, label %10, label %33

10:                                               ; preds = %7
  %11 = getelementptr inbounds %"class.VrmlTranslator::StartStates", ptr %6, i32 0, i32 1
  %12 = load ptr, ptr %11, align 8
  %13 = load i32, ptr %3, align 4
  %14 = sext i32 %13 to i64
  %15 = getelementptr inbounds ptr, ptr %12, i64 %14
  %16 = load ptr, ptr %15, align 8
  store ptr %16, ptr %4, align 8
  br label %17

17:                                               ; preds = %27, %10
  %18 = load ptr, ptr %4, align 8
  %19 = icmp ne ptr %18, null
  br i1 %19, label %20, label %29

20:                                               ; preds = %17
  %21 = load ptr, ptr %4, align 8
  %22 = getelementptr inbounds %"class.VrmlTranslator::StartStates::Elem", ptr %21, i32 0, i32 2
  %23 = load ptr, ptr %22, align 8
  store ptr %23, ptr %5, align 8
  %24 = load ptr, ptr %4, align 8
  %25 = icmp eq ptr %24, null
  br i1 %25, label %27, label %26

26:                                               ; preds = %20
  call void @_ZdlPv(ptr noundef %24) #13
  br label %27

27:                                               ; preds = %26, %20
  %28 = load ptr, ptr %5, align 8
  store ptr %28, ptr %4, align 8
  br label %17, !llvm.loop !29

29:                                               ; preds = %17
  br label %30

30:                                               ; preds = %29
  %31 = load i32, ptr %3, align 4
  %32 = add nsw i32 %31, 1
  store i32 %32, ptr %3, align 4
  br label %7, !llvm.loop !30

33:                                               ; preds = %7
  %34 = getelementptr inbounds %"class.VrmlTranslator::StartStates", ptr %6, i32 0, i32 1
  %35 = load ptr, ptr %34, align 8
  %36 = icmp eq ptr %35, null
  br i1 %36, label %38, label %37

37:                                               ; preds = %33
  call void @_ZdaPv(ptr noundef %35) #13
  br label %38

38:                                               ; preds = %37, %33
  ret void
}

; Function Attrs: mustprogress nounwind uwtable
define linkonce_odr void @_ZN14VrmlTranslator10KeywordMapD2Ev(ptr noundef nonnull align 8 dereferenceable(16) %0) unnamed_addr #0 comdat align 2 {
  %2 = alloca ptr, align 8
  %3 = alloca i32, align 4
  %4 = alloca ptr, align 8
  %5 = alloca ptr, align 8
  store ptr %0, ptr %2, align 8
  %6 = load ptr, ptr %2, align 8
  store ptr getelementptr inbounds ({ [4 x ptr] }, ptr @_ZTVN14VrmlTranslator10KeywordMapE, i32 0, i32 0, i32 2), ptr %6, align 8
  store i32 0, ptr %3, align 4
  br label %7

7:                                                ; preds = %33, %1
  %8 = load i32, ptr %3, align 4
  %9 = icmp slt i32 %8, 128
  br i1 %9, label %10, label %36

10:                                               ; preds = %7
  %11 = getelementptr inbounds %"class.VrmlTranslator::KeywordMap", ptr %6, i32 0, i32 1
  %12 = load ptr, ptr %11, align 8
  %13 = load i32, ptr %3, align 4
  %14 = sext i32 %13 to i64
  %15 = getelementptr inbounds ptr, ptr %12, i64 %14
  %16 = load ptr, ptr %15, align 8
  store ptr %16, ptr %4, align 8
  br label %17

17:                                               ; preds = %30, %10
  %18 = load ptr, ptr %4, align 8
  %19 = icmp ne ptr %18, null
  br i1 %19, label %20, label %32

20:                                               ; preds = %17
  %21 = load ptr, ptr %4, align 8
  %22 = getelementptr inbounds %"class.VrmlTranslator::KeywordMap::Elem", ptr %21, i32 0, i32 3
  %23 = load ptr, ptr %22, align 8
  store ptr %23, ptr %5, align 8
  %24 = load ptr, ptr %4, align 8
  %25 = icmp eq ptr %24, null
  br i1 %25, label %30, label %26

26:                                               ; preds = %20
  %27 = load ptr, ptr %24, align 8
  %28 = getelementptr inbounds ptr, ptr %27, i64 1
  %29 = load ptr, ptr %28, align 8
  call void %29(ptr noundef nonnull align 8 dereferenceable(32) %24) #12
  br label %30

30:                                               ; preds = %26, %20
  %31 = load ptr, ptr %5, align 8
  store ptr %31, ptr %4, align 8
  br label %17, !llvm.loop !27

32:                                               ; preds = %17
  br label %33

33:                                               ; preds = %32
  %34 = load i32, ptr %3, align 4
  %35 = add nsw i32 %34, 1
  store i32 %35, ptr %3, align 4
  br label %7, !llvm.loop !28

36:                                               ; preds = %7
  %37 = getelementptr inbounds %"class.VrmlTranslator::KeywordMap", ptr %6, i32 0, i32 1
  %38 = load ptr, ptr %37, align 8
  %39 = icmp eq ptr %38, null
  br i1 %39, label %41, label %40

40:                                               ; preds = %36
  call void @_ZdaPv(ptr noundef %38) #13
  br label %41

41:                                               ; preds = %40, %36
  ret void
}

; Function Attrs: mustprogress nounwind uwtable
define void @_ZN14VrmlTranslator7ScannerD2Ev(ptr noundef nonnull align 8 dereferenceable(160) %0) unnamed_addr #0 align 2 {
  %2 = alloca ptr, align 8
  %3 = alloca ptr, align 8
  store ptr %0, ptr %2, align 8
  %4 = load ptr, ptr %2, align 8
  %5 = getelementptr inbounds %"class.VrmlTranslator::Scanner", ptr %4, i32 0, i32 0
  %6 = load ptr, ptr %5, align 8
  store ptr %6, ptr %3, align 8
  br label %7

7:                                                ; preds = %10, %1
  %8 = load ptr, ptr %3, align 8
  %9 = icmp ne ptr %8, null
  br i1 %9, label %10, label %18

10:                                               ; preds = %7
  %11 = load ptr, ptr %3, align 8
  %12 = getelementptr inbounds i8, ptr %11, i64 65536
  %13 = load ptr, ptr %12, align 8
  store ptr %13, ptr %3, align 8
  %14 = getelementptr inbounds %"class.VrmlTranslator::Scanner", ptr %4, i32 0, i32 0
  %15 = load ptr, ptr %14, align 8
  call void @free(ptr noundef %15) #12
  %16 = load ptr, ptr %3, align 8
  %17 = getelementptr inbounds %"class.VrmlTranslator::Scanner", ptr %4, i32 0, i32 0
  store ptr %16, ptr %17, align 8
  br label %7, !llvm.loop !31

18:                                               ; preds = %7
  %19 = getelementptr inbounds %"class.VrmlTranslator::Scanner", ptr %4, i32 0, i32 12
  %20 = load ptr, ptr %19, align 8
  %21 = icmp eq ptr %20, null
  br i1 %21, label %23, label %22

22:                                               ; preds = %18
  call void @_ZdaPv(ptr noundef %20) #13
  br label %23

23:                                               ; preds = %22, %18
  %24 = getelementptr inbounds %"class.VrmlTranslator::Scanner", ptr %4, i32 0, i32 22
  %25 = load ptr, ptr %24, align 8
  %26 = icmp eq ptr %25, null
  br i1 %26, label %31, label %27

27:                                               ; preds = %23
  %28 = load ptr, ptr %25, align 8
  %29 = getelementptr inbounds ptr, ptr %28, i64 1
  %30 = load ptr, ptr %29, align 8
  call void %30(ptr noundef nonnull align 8 dereferenceable(49) %25) #12
  br label %31

31:                                               ; preds = %27, %23
  %32 = getelementptr inbounds %"class.VrmlTranslator::Scanner", ptr %4, i32 0, i32 10
  call void @_ZN14VrmlTranslator10KeywordMapD2Ev(ptr noundef nonnull align 8 dereferenceable(16) %32) #12
  %33 = getelementptr inbounds %"class.VrmlTranslator::Scanner", ptr %4, i32 0, i32 9
  call void @_ZN14VrmlTranslator11StartStatesD2Ev(ptr noundef nonnull align 8 dereferenceable(16) %33) #12
  ret void
}