; Function Attrs: mustprogress nounwind uwtable
define void @_ZN14VrmlTranslator7ScannerD2Ev(ptr nocapture noundef nonnull align 8 dereferenceable(160) %0) unnamed_addr #0 align 2 {
  %2 = load ptr, ptr %0, align 8
  %.not14 = icmp eq ptr %2, null
  br i1 %.not14, label %._crit_edge, label %.lr.ph

.lr.ph:                                           ; preds = %1, %.lr.ph
  %3 = phi ptr [ %5, %.lr.ph ], [ %2, %1 ]
  %4 = getelementptr inbounds i8, ptr %3, i64 65536
  %5 = load ptr, ptr %4, align 8
  tail call void @free(ptr noundef nonnull %3) #22
  store ptr %5, ptr %0, align 8
  %.not = icmp eq ptr %5, null
  br i1 %.not, label %._crit_edge, label %.lr.ph, !llvm.loop !26

._crit_edge:                                      ; preds = %.lr.ph, %1
  %6 = getelementptr inbounds i8, ptr %0, i64 96
  %7 = load ptr, ptr %6, align 8
  %8 = icmp eq ptr %7, null
  br i1 %8, label %10, label %9

9:                                                ; preds = %._crit_edge
  tail call void @_ZdaPv(ptr noundef nonnull %7) #20
  br label %10

10:                                               ; preds = %9, %._crit_edge
  %11 = getelementptr inbounds i8, ptr %0, i64 152
  %12 = load ptr, ptr %11, align 8
  %13 = icmp eq ptr %12, null
  br i1 %13, label %18, label %14

14:                                               ; preds = %10
  %15 = load ptr, ptr %12, align 8
  %16 = getelementptr inbounds i8, ptr %15, i64 8
  %17 = load ptr, ptr %16, align 8
  tail call void %17(ptr noundef nonnull align 8 dereferenceable(49) %12) #22
  br label %18

18:                                               ; preds = %14, %10
  %19 = getelementptr inbounds i8, ptr %0, i64 72
  store ptr getelementptr inbounds ({ [4 x ptr] }, ptr @_ZTVN14VrmlTranslator10KeywordMapE, i64 0, i32 0, i64 2), ptr %19, align 8
  %20 = getelementptr inbounds i8, ptr %0, i64 80
  br label %21

21:                                               ; preds = %._crit_edge.i, %18
  %indvars.iv.i = phi i64 [ 0, %18 ], [ %indvars.iv.next.i, %._crit_edge.i ]
  %22 = load ptr, ptr %20, align 8
  %23 = getelementptr inbounds ptr, ptr %22, i64 %indvars.iv.i
  %24 = load ptr, ptr %23, align 8
  %.not9.i = icmp eq ptr %24, null
  br i1 %.not9.i, label %._crit_edge.i, label %.lr.ph.i

.lr.ph.i:                                         ; preds = %21, %.lr.ph.i
  %.0710.i = phi ptr [ %26, %.lr.ph.i ], [ %24, %21 ]
  %25 = getelementptr inbounds i8, ptr %.0710.i, i64 24
  %26 = load ptr, ptr %25, align 8
  %27 = load ptr, ptr %.0710.i, align 8
  %28 = getelementptr inbounds i8, ptr %27, i64 8
  %29 = load ptr, ptr %28, align 8
  tail call void %29(ptr noundef nonnull align 8 dereferenceable(32) %.0710.i) #22
  %.not.i = icmp eq ptr %26, null
  br i1 %.not.i, label %._crit_edge.i, label %.lr.ph.i, !llvm.loop !22

._crit_edge.i:                                    ; preds = %.lr.ph.i, %21
  %indvars.iv.next.i = add nuw nsw i64 %indvars.iv.i, 1
  %exitcond.not.i = icmp eq i64 %indvars.iv.next.i, 128
  br i1 %exitcond.not.i, label %30, label %21, !llvm.loop !23

30:                                               ; preds = %._crit_edge.i
  %31 = load ptr, ptr %20, align 8
  %32 = icmp eq ptr %31, null
  br i1 %32, label %_ZN14VrmlTranslator10KeywordMapD2Ev.exit, label %33

33:                                               ; preds = %30
  tail call void @_ZdaPv(ptr noundef nonnull %31) #20
  br label %_ZN14VrmlTranslator10KeywordMapD2Ev.exit

_ZN14VrmlTranslator10KeywordMapD2Ev.exit:         ; preds = %30, %33
  %34 = getelementptr inbounds i8, ptr %0, i64 56
  store ptr getelementptr inbounds ({ [4 x ptr] }, ptr @_ZTVN14VrmlTranslator11StartStatesE, i64 0, i32 0, i64 2), ptr %34, align 8
  %35 = getelementptr inbounds i8, ptr %0, i64 64
  br label %36

36:                                               ; preds = %._crit_edge.i11, %_ZN14VrmlTranslator10KeywordMapD2Ev.exit
  %indvars.iv.i6 = phi i64 [ 0, %_ZN14VrmlTranslator10KeywordMapD2Ev.exit ], [ %indvars.iv.next.i12, %._crit_edge.i11 ]
  %37 = load ptr, ptr %35, align 8
  %38 = getelementptr inbounds ptr, ptr %37, i64 %indvars.iv.i6
  %39 = load ptr, ptr %38, align 8
  %.not9.i7 = icmp eq ptr %39, null
  br i1 %.not9.i7, label %._crit_edge.i11, label %.lr.ph.i8

.lr.ph.i8:                                        ; preds = %36, %.lr.ph.i8
  %.0710.i9 = phi ptr [ %41, %.lr.ph.i8 ], [ %39, %36 ]
  %40 = getelementptr inbounds i8, ptr %.0710.i9, i64 8
  %41 = load ptr, ptr %40, align 8
  tail call void @_ZdlPv(ptr noundef nonnull %.0710.i9) #20
  %.not.i10 = icmp eq ptr %41, null
  br i1 %.not.i10, label %._crit_edge.i11, label %.lr.ph.i8, !llvm.loop !24

._crit_edge.i11:                                  ; preds = %.lr.ph.i8, %36
  %indvars.iv.next.i12 = add nuw nsw i64 %indvars.iv.i6, 1
  %exitcond.not.i13 = icmp eq i64 %indvars.iv.next.i12, 128
  br i1 %exitcond.not.i13, label %42, label %36, !llvm.loop !25

42:                                               ; preds = %._crit_edge.i11
  %43 = load ptr, ptr %35, align 8
  %44 = icmp eq ptr %43, null
  br i1 %44, label %_ZN14VrmlTranslator11StartStatesD2Ev.exit, label %45

45:                                               ; preds = %42
  tail call void @_ZdaPv(ptr noundef nonnull %43) #20
  br label %_ZN14VrmlTranslator11StartStatesD2Ev.exit

_ZN14VrmlTranslator11StartStatesD2Ev.exit:        ; preds = %42, %45
  ret void
}